; Function Attrs: nounwind uwtable
define void @_ZThn16_N22AmbientOcclusionPluginD1Ev(ptr noundef %0) unnamed_addr #13 align 2 {
  %2 = getelementptr inbounds i8, ptr %0, i64 -16
  tail call void @_ZN22AmbientOcclusionPluginD2Ev(ptr noundef nonnull align 8 dereferenceable(185) %2, ptr noundef nonnull @_ZTT22AmbientOcclusionPlugin) #26
  %3 = getelementptr inbounds i8, ptr %0, i64 176
  store ptr getelementptr inbounds ({ [7 x ptr] }, ptr @_ZTV13MeshLabPlugin, i64 0, i32 0, i64 2), ptr %3, align 8
  %4 = getelementptr inbounds i8, ptr %0, i64 192
  tail call void @_ZN9QFileInfoD1Ev(ptr noundef nonnull align 8 dereferenceable(8) %4) #26
  ret void
}